target datalayout = "e-m:e-p270:32:32-p271:32:32-p272:64:64-i64:64-f80:128-n8:16:32:64-S128"
target triple = "x86_64-pc-linux-gnu"

@.str = private unnamed_addr constant [9 x i8] c"%d %s %d\00", align 1
@.str.1 = private unnamed_addr constant [3 x i8] c"0\0A\00", align 1
@.str.2 = private unnamed_addr constant [3 x i8] c"%c\00", align 1
@.str.3 = private unnamed_addr constant [2 x i8] c"\0A\00", align 1

; Function Attrs: noinline nounwind uwtable
define dso_local void @main() #0 {
  %1 = alloca i32, align 4
  %2 = alloca i32, align 4
  %3 = alloca [100 x i8], align 16
  %4 = alloca i32, align 4
  %5 = alloca i32, align 4
  %6 = alloca [100 x i32], align 16
  %7 = alloca [100 x i32], align 16
  %8 = alloca i32, align 4
  %9 = alloca [100 x i8], align 16
  %10 = alloca [100 x i32], align 16
  %11 = getelementptr inbounds [100 x i8], [100 x i8]* %3, i64 0, i64 0
  %12 = call i32 (i8*, ...) @__isoc99_scanf(i8* getelementptr inbounds ([9 x i8], [9 x i8]* @.str, i64 0, i64 0), i32* %1, i8* %11, i32* %2)
  store i32 0, i32* %5, align 4
  store i32 0, i32* %4, align 4
  br label %13

13:                                               ; preds = %82, %0
  %14 = load i32, i32* %4, align 4
  %15 = sext i32 %14 to i64
  %16 = getelementptr inbounds [100 x i8], [100 x i8]* %3, i64 0, i64 %15
  %17 = load i8, i8* %16, align 1
  %18 = sext i8 %17 to i32
  %19 = icmp ne i32 %18, 0
  br i1 %19, label %20, label %85

20:                                               ; preds = %13
  %21 = load i32, i32* %5, align 4
  %22 = add nsw i32 %21, 1
  store i32 %22, i32* %5, align 4
  %23 = load i32, i32* %4, align 4
  %24 = sext i32 %23 to i64
  %25 = getelementptr inbounds [100 x i8], [100 x i8]* %3, i64 0, i64 %24
  %26 = load i8, i8* %25, align 1
  %27 = sext i8 %26 to i32
  %28 = icmp sge i32 %27, 48
  br i1 %28, label %29, label %46

29:                                               ; preds = %20
  %30 = load i32, i32* %4, align 4
  %31 = sext i32 %30 to i64
  %32 = getelementptr inbounds [100 x i8], [100 x i8]* %3, i64 0, i64 %31
  %33 = load i8, i8* %32, align 1
  %34 = sext i8 %33 to i32
  %35 = icmp sle i32 %34, 57
  br i1 %35, label %36, label %46

36:                                               ; preds = %29
  %37 = load i32, i32* %4, align 4
  %38 = sext i32 %37 to i64
  %39 = getelementptr inbounds [100 x i8], [100 x i8]* %3, i64 0, i64 %38
  %40 = load i8, i8* %39, align 1
  %41 = sext i8 %40 to i32
  %42 = sub nsw i32 %41, 48
  %43 = load i32, i32* %4, align 4
  %44 = sext i32 %43 to i64
  %45 = getelementptr inbounds [100 x i32], [100 x i32]* %6, i64 0, i64 %44
  store i32 %42, i32* %45, align 4
  br label %81

46:                                               ; preds = %29, %20
  %47 = load i32, i32* %4, align 4
  %48 = sext i32 %47 to i64
  %49 = getelementptr inbounds [100 x i8], [100 x i8]* %3, i64 0, i64 %48
  %50 = load i8, i8* %49, align 1
  %51 = sext i8 %50 to i32
  %52 = icmp sge i32 %51, 65
  br i1 %52, label %53, label %70

53:                                               ; preds = %46
  %54 = load i32, i32* %4, align 4
  %55 = sext i32 %54 to i64
  %56 = getelementptr inbounds [100 x i8], [100 x i8]* %3, i64 0, i64 %55
  %57 = load i8, i8* %56, align 1
  %58 = sext i8 %57 to i32
  %59 = icmp sle i32 %58, 90
  br i1 %59, label %60, label %70

60:                                               ; preds = %53
  %61 = load i32, i32* %4, align 4
  %62 = sext i32 %61 to i64
  %63 = getelementptr inbounds [100 x i8], [100 x i8]* %3, i64 0, i64 %62
  %64 = load i8, i8* %63, align 1
  %65 = sext i8 %64 to i32
  %66 = sub nsw i32 %65, 55
  %67 = load i32, i32* %4, align 4
  %68 = sext i32 %67 to i64
  %69 = getelementptr inbounds [100 x i32], [100 x i32]* %6, i64 0, i64 %68
  store i32 %66, i32* %69, align 4
  br label %80

70:                                               ; preds = %53, %46
  %71 = load i32, i32* %4, align 4
  %72 = sext i32 %71 to i64
  %73 = getelementptr inbounds [100 x i8], [100 x i8]* %3, i64 0, i64 %72
  %74 = load i8, i8* %73, align 1
  %75 = sext i8 %74 to i32
  %76 = sub nsw i32 %75, 87
  %77 = load i32, i32* %4, align 4
  %78 = sext i32 %77 to i64
  %79 = getelementptr inbounds [100 x i32], [100 x i32]* %6, i64 0, i64 %78
  store i32 %76, i32* %79, align 4
  br label %80

80:                                               ; preds = %70, %60
  br label %81

81:                                               ; preds = %80, %36
  br label %82

82:                                               ; preds = %81
  %83 = load i32, i32* %4, align 4
  %84 = add nsw i32 %83, 1
  store i32 %84, i32* %4, align 4
  br label %13

85:                                               ; preds = %13
  %86 = getelementptr inbounds [100 x i32], [100 x i32]* %7, i64 0, i64 0
  store i32 1, i32* %86, align 16
  store i32 0, i32* %4, align 4
  br label %87

87:                                               ; preds = %102, %85
  %88 = load i32, i32* %4, align 4
  %89 = load i32, i32* %5, align 4
  %90 = icmp slt i32 %88, %89
  br i1 %90, label %91, label %105

91:                                               ; preds = %87
  %92 = load i32, i32* %4, align 4
  %93 = sext i32 %92 to i64
  %94 = getelementptr inbounds [100 x i32], [100 x i32]* %7, i64 0, i64 %93
  %95 = load i32, i32* %94, align 4
  %96 = load i32, i32* %1, align 4
  %97 = mul nsw i32 %95, %96
  %98 = load i32, i32* %4, align 4
  %99 = add nsw i32 %98, 1
  %100 = sext i32 %99 to i64
  %101 = getelementptr inbounds [100 x i32], [100 x i32]* %7, i64 0, i64 %100
  store i32 %97, i32* %101, align 4
  br label %102

102:                                              ; preds = %91
  %103 = load i32, i32* %4, align 4
  %104 = add nsw i32 %103, 1
  store i32 %104, i32* %4, align 4
  br label %87

105:                                              ; preds = %87
  store i32 0, i32* %8, align 4
  store i32 0, i32* %4, align 4
  br label %106

106:                                              ; preds = %125, %105
  %107 = load i32, i32* %4, align 4
  %108 = load i32, i32* %5, align 4
  %109 = icmp slt i32 %107, %108
  br i1 %109, label %110, label %128

110:                                              ; preds = %106
  %111 = load i32, i32* %4, align 4
  %112 = sext i32 %111 to i64
  %113 = getelementptr inbounds [100 x i32], [100 x i32]* %7, i64 0, i64 %112
  %114 = load i32, i32* %113, align 4
  %115 = load i32, i32* %5, align 4
  %116 = load i32, i32* %4, align 4
  %117 = sub nsw i32 %115, %116
  %118 = sub nsw i32 %117, 1
  %119 = sext i32 %118 to i64
  %120 = getelementptr inbounds [100 x i32], [100 x i32]* %6, i64 0, i64 %119
  %121 = load i32, i32* %120, align 4
  %122 = mul nsw i32 %114, %121
  %123 = load i32, i32* %8, align 4
  %124 = add nsw i32 %123, %122
  store i32 %124, i32* %8, align 4
  br label %125

125:                                              ; preds = %110
  %126 = load i32, i32* %4, align 4
  %127 = add nsw i32 %126, 1
  store i32 %127, i32* %4, align 4
  br label %106

128:                                              ; preds = %106
  store i32 0, i32* %5, align 4
  %129 = load i32, i32* %8, align 4
  %130 = icmp eq i32 %129, 0
  br i1 %130, label %131, label %133

131:                                              ; preds = %128
  %132 = call i32 (i8*, ...) @printf(i8* getelementptr inbounds ([3 x i8], [3 x i8]* @.str.1, i64 0, i64 0))
  br label %222

133:                                              ; preds = %128
  store i32 0, i32* %4, align 4
  br label %134

134:                                              ; preds = %149, %133
  %135 = load i32, i32* %8, align 4
  %136 = icmp ne i32 %135, 0
  br i1 %136, label %137, label %152

137:                                              ; preds = %134
  %138 = load i32, i32* %5, align 4
  %139 = add nsw i32 %138, 1
  store i32 %139, i32* %5, align 4
  %140 = load i32, i32* %8, align 4
  %141 = load i32, i32* %2, align 4
  %142 = srem i32 %140, %141
  %143 = load i32, i32* %4, align 4
  %144 = sext i32 %143 to i64
  %145 = getelementptr inbounds [100 x i32], [100 x i32]* %10, i64 0, i64 %144
  store i32 %142, i32* %145, align 4
  %146 = load i32, i32* %8, align 4
  %147 = load i32, i32* %2, align 4
  %148 = sdiv i32 %146, %147
  store i32 %148, i32* %8, align 4
  br label %149

149:                                              ; preds = %137
  %150 = load i32, i32* %4, align 4
  %151 = add nsw i32 %150, 1
  store i32 %151, i32* %4, align 4
  br label %134

152:                                              ; preds = %134
  store i32 0, i32* %4, align 4
  br label %153

153:                                              ; preds = %202, %152
  %154 = load i32, i32* %4, align 4
  %155 = load i32, i32* %5, align 4
  %156 = icmp slt i32 %154, %155
  br i1 %156, label %157, label %205

157:                                              ; preds = %153
  %158 = load i32, i32* %5, align 4
  %159 = load i32, i32* %4, align 4
  %160 = sub nsw i32 %158, %159
  %161 = sub nsw i32 %160, 1
  %162 = sext i32 %161 to i64
  %163 = getelementptr inbounds [100 x i32], [100 x i32]* %10, i64 0, i64 %162
  %164 = load i32, i32* %163, align 4
  %165 = icmp sge i32 %164, 0
  br i1 %165, label %166, label %188

166:                                              ; preds = %157
  %167 = load i32, i32* %5, align 4
  %168 = sub nsw i32 %167, 1
  %169 = load i32, i32* %4, align 4
  %170 = sub nsw i32 %168, %169
  %171 = sext i32 %170 to i64
  %172 = getelementptr inbounds [100 x i32], [100 x i32]* %10, i64 0, i64 %171
  %173 = load i32, i32* %172, align 4
  %174 = icmp sle i32 %173, 9
  br i1 %174, label %175, label %188

175:                                              ; preds = %166
  %176 = load i32, i32* %5, align 4
  %177 = sub nsw i32 %176, 1
  %178 = load i32, i32* %4, align 4
  %179 = sub nsw i32 %177, %178
  %180 = sext i32 %179 to i64
  %181 = getelementptr inbounds [100 x i32], [100 x i32]* %10, i64 0, i64 %180
  %182 = load i32, i32* %181, align 4
  %183 = add nsw i32 %182, 48
  %184 = trunc i32 %183 to i8
  %185 = load i32, i32* %4, align 4
  %186 = sext i32 %185 to i64
  %187 = getelementptr inbounds [100 x i8], [100 x i8]* %9, i64 0, i64 %186
  store i8 %184, i8* %187, align 1
  br label %201

188:                                              ; preds = %166, %157
  %189 = load i32, i32* %5, align 4
  %190 = sub nsw i32 %189, 1
  %191 = load i32, i32* %4, align 4
  %192 = sub nsw i32 %190, %191
  %193 = sext i32 %192 to i64
  %194 = getelementptr inbounds [100 x i32], [100 x i32]* %10, i64 0, i64 %193
  %195 = load i32, i32* %194, align 4
  %196 = add nsw i32 %195, 55
  %197 = trunc i32 %196 to i8
  %198 = load i32, i32* %4, align 4
  %199 = sext i32 %198 to i64
  %200 = getelementptr inbounds [100 x i8], [100 x i8]* %9, i64 0, i64 %199
  store i8 %197, i8* %200, align 1
  br label %201

201:                                              ; preds = %188, %175
  br label %202

202:                                              ; preds = %201
  %203 = load i32, i32* %4, align 4
  %204 = add nsw i32 %203, 1
  store i32 %204, i32* %4, align 4
  br label %153

205:                                              ; preds = %153
  store i32 0, i32* %4, align 4
  br label %206

206:                                              ; preds = %217, %205
  %207 = load i32, i32* %4, align 4
  %208 = load i32, i32* %5, align 4
  %209 = icmp slt i32 %207, %208
  br i1 %209, label %210, label %220

210:                                              ; preds = %206
  %211 = load i32, i32* %4, align 4
  %212 = sext i32 %211 to i64
  %213 = getelementptr inbounds [100 x i8], [100 x i8]* %9, i64 0, i64 %212
  %214 = load i8, i8* %213, align 1
  %215 = sext i8 %214 to i32
  %216 = call i32 (i8*, ...) @printf(i8* getelementptr inbounds ([3 x i8], [3 x i8]* @.str.2, i64 0, i64 0), i32 %215)
  br label %217

217:                                              ; preds = %210
  %218 = load i32, i32* %4, align 4
  %219 = add nsw i32 %218, 1
  store i32 %219, i32* %4, align 4
  br label %206

220:                                              ; preds = %206
  %221 = call i32 (i8*, ...) @printf(i8* getelementptr inbounds ([2 x i8], [2 x i8]* @.str.3, i64 0, i64 0))
  br label %222

222:                                              ; preds = %220, %131
  ret void
}